target datalayout = "e-m:e-p270:32:32-p271:32:32-p272:64:64-i64:64-i128:128-f80:128-n8:16:32:64-S128"
target triple = "x86_64-pc-linux-gnu"

%struct.xtc3_context = type { ptr, i32, i32, ptr, i32, i32, ptr, i32, i32, ptr, i32, i32, ptr, i32, i32, ptr, i32, i32, [3 x i32], [3 x i32], i32, [3072 x i32], [1024 x i32], i32 }

; Function Attrs: inlinehint nounwind uwtable
define internal i32 @unpositive_int(i32 noundef %0) #4 {
  %2 = alloca i32, align 4
  %3 = alloca i32, align 4
  store i32 %0, ptr %2, align 4, !tbaa !8
  call void @llvm.lifetime.start.p0(i64 4, ptr %3) #9
  %4 = load i32, ptr %2, align 4, !tbaa !8
  %5 = add nsw i32 %4, 1
  %6 = sdiv i32 %5, 2
  store i32 %6, ptr %3, align 4, !tbaa !8
  %7 = load i32, ptr %2, align 4, !tbaa !8
  %8 = srem i32 %7, 2
  %9 = icmp eq i32 %8, 0
  br i1 %9, label %10, label %13

10:                                               ; preds = %1
  %11 = load i32, ptr %3, align 4, !tbaa !8
  %12 = sub nsw i32 0, %11
  store i32 %12, ptr %3, align 4, !tbaa !8
  br label %13

13:                                               ; preds = %10, %1
  %14 = load i32, ptr %3, align 4, !tbaa !8
  call void @llvm.lifetime.end.p0(i64 4, ptr %3) #9
  ret i32 %14
}

; Function Attrs: nounwind uwtable
define internal void @unpack_one_large(ptr noundef %0, ptr noundef %1, ptr noundef %2, ptr noundef %3, ptr noundef %4, ptr noundef %5, ptr noundef %6, i32 noundef %7, i32 noundef %8, i32 noundef %9, i32 noundef %10) #0 {
  %12 = alloca ptr, align 8
  %13 = alloca ptr, align 8
  %14 = alloca ptr, align 8
  %15 = alloca ptr, align 8
  %16 = alloca ptr, align 8
  %17 = alloca ptr, align 8
  %18 = alloca ptr, align 8
  %19 = alloca i32, align 4
  %20 = alloca i32, align 4
  %21 = alloca i32, align 4
  %22 = alloca i32, align 4
  %23 = alloca [3 x i32], align 4
  store ptr %0, ptr %12, align 8, !tbaa !56
  store ptr %1, ptr %13, align 8, !tbaa !3
  store ptr %2, ptr %14, align 8, !tbaa !3
  store ptr %3, ptr %15, align 8, !tbaa !3
  store ptr %4, ptr %16, align 8, !tbaa !3
  store ptr %5, ptr %17, align 8, !tbaa !3
  store ptr %6, ptr %18, align 8, !tbaa !3
  store i32 %7, ptr %19, align 4, !tbaa !8
  store i32 %8, ptr %20, align 4, !tbaa !8
  store i32 %9, ptr %21, align 4, !tbaa !8
  store i32 %10, ptr %22, align 4, !tbaa !8
  call void @llvm.lifetime.start.p0(i64 12, ptr %23) #9
  call void @llvm.memset.p0.i64(ptr align 4 %23, i8 0, i64 12, i1 false)
  %24 = load i32, ptr %22, align 4, !tbaa !8
  %25 = icmp eq i32 %24, 0
  br i1 %25, label %26, label %76

26:                                               ; preds = %11
  %27 = load ptr, ptr %12, align 8, !tbaa !56
  %28 = getelementptr inbounds nuw %struct.xtc3_context, ptr %27, i32 0, i32 6
  %29 = load ptr, ptr %28, align 8, !tbaa !48
  %30 = icmp ne ptr %29, null
  br i1 %30, label %31, label %76

31:                                               ; preds = %26
  %32 = load ptr, ptr %12, align 8, !tbaa !56
  %33 = getelementptr inbounds nuw %struct.xtc3_context, ptr %32, i32 0, i32 6
  %34 = load ptr, ptr %33, align 8, !tbaa !48
  %35 = load ptr, ptr %13, align 8, !tbaa !3
  %36 = load i32, ptr %35, align 4, !tbaa !8
  %37 = sext i32 %36 to i64
  %38 = getelementptr inbounds i32, ptr %34, i64 %37
  %39 = load i32, ptr %38, align 4, !tbaa !8
  %40 = load ptr, ptr %17, align 8, !tbaa !3
  %41 = getelementptr inbounds i32, ptr %40, i64 0
  %42 = load i32, ptr %41, align 4, !tbaa !8
  %43 = add nsw i32 %39, %42
  %44 = getelementptr inbounds [3 x i32], ptr %23, i64 0, i64 0
  store i32 %43, ptr %44, align 4, !tbaa !8
  %45 = load ptr, ptr %12, align 8, !tbaa !56
  %46 = getelementptr inbounds nuw %struct.xtc3_context, ptr %45, i32 0, i32 6
  %47 = load ptr, ptr %46, align 8, !tbaa !48
  %48 = load ptr, ptr %13, align 8, !tbaa !3
  %49 = load i32, ptr %48, align 4, !tbaa !8
  %50 = add nsw i32 %49, 1
  %51 = sext i32 %50 to i64
  %52 = getelementptr inbounds i32, ptr %47, i64 %51
  %53 = load i32, ptr %52, align 4, !tbaa !8
  %54 = load ptr, ptr %17, align 8, !tbaa !3
  %55 = getelementptr inbounds i32, ptr %54, i64 1
  %56 = load i32, ptr %55, align 4, !tbaa !8
  %57 = add nsw i32 %53, %56
  %58 = getelementptr inbounds [3 x i32], ptr %23, i64 0, i64 1
  store i32 %57, ptr %58, align 4, !tbaa !8
  %59 = load ptr, ptr %12, align 8, !tbaa !56
  %60 = getelementptr inbounds nuw %struct.xtc3_context, ptr %59, i32 0, i32 6
  %61 = load ptr, ptr %60, align 8, !tbaa !48
  %62 = load ptr, ptr %13, align 8, !tbaa !3
  %63 = load i32, ptr %62, align 4, !tbaa !8
  %64 = add nsw i32 %63, 2
  %65 = sext i32 %64 to i64
  %66 = getelementptr inbounds i32, ptr %61, i64 %65
  %67 = load i32, ptr %66, align 4, !tbaa !8
  %68 = load ptr, ptr %17, align 8, !tbaa !3
  %69 = getelementptr inbounds i32, ptr %68, i64 2
  %70 = load i32, ptr %69, align 4, !tbaa !8
  %71 = add nsw i32 %67, %70
  %72 = getelementptr inbounds [3 x i32], ptr %23, i64 0, i64 2
  store i32 %71, ptr %72, align 4, !tbaa !8
  %73 = load ptr, ptr %13, align 8, !tbaa !3
  %74 = load i32, ptr %73, align 4, !tbaa !8
  %75 = add nsw i32 %74, 3
  store i32 %75, ptr %73, align 4, !tbaa !8
  br label %213

76:                                               ; preds = %26, %11
  %77 = load i32, ptr %22, align 4, !tbaa !8
  %78 = icmp eq i32 %77, 1
  br i1 %78, label %79, label %132

79:                                               ; preds = %76
  %80 = load ptr, ptr %12, align 8, !tbaa !56
  %81 = getelementptr inbounds nuw %struct.xtc3_context, ptr %80, i32 0, i32 9
  %82 = load ptr, ptr %81, align 8, !tbaa !51
  %83 = icmp ne ptr %82, null
  br i1 %83, label %84, label %132

84:                                               ; preds = %79
  %85 = load ptr, ptr %12, align 8, !tbaa !56
  %86 = getelementptr inbounds nuw %struct.xtc3_context, ptr %85, i32 0, i32 9
  %87 = load ptr, ptr %86, align 8, !tbaa !51
  %88 = load ptr, ptr %14, align 8, !tbaa !3
  %89 = load i32, ptr %88, align 4, !tbaa !8
  %90 = sext i32 %89 to i64
  %91 = getelementptr inbounds i32, ptr %87, i64 %90
  %92 = load i32, ptr %91, align 4, !tbaa !8
  %93 = call i32 @unpositive_int(i32 noundef %92)
  %94 = load ptr, ptr %16, align 8, !tbaa !3
  %95 = getelementptr inbounds i32, ptr %94, i64 0
  %96 = load i32, ptr %95, align 4, !tbaa !8
  %97 = add nsw i32 %93, %96
  %98 = getelementptr inbounds [3 x i32], ptr %23, i64 0, i64 0
  store i32 %97, ptr %98, align 4, !tbaa !8
  %99 = load ptr, ptr %12, align 8, !tbaa !56
  %100 = getelementptr inbounds nuw %struct.xtc3_context, ptr %99, i32 0, i32 9
  %101 = load ptr, ptr %100, align 8, !tbaa !51
  %102 = load ptr, ptr %14, align 8, !tbaa !3
  %103 = load i32, ptr %102, align 4, !tbaa !8
  %104 = add nsw i32 %103, 1
  %105 = sext i32 %104 to i64
  %106 = getelementptr inbounds i32, ptr %101, i64 %105
  %107 = load i32, ptr %106, align 4, !tbaa !8
  %108 = call i32 @unpositive_int(i32 noundef %107)
  %109 = load ptr, ptr %16, align 8, !tbaa !3
  %110 = getelementptr inbounds i32, ptr %109, i64 1
  %111 = load i32, ptr %110, align 4, !tbaa !8
  %112 = add nsw i32 %108, %111
  %113 = getelementptr inbounds [3 x i32], ptr %23, i64 0, i64 1
  store i32 %112, ptr %113, align 4, !tbaa !8
  %114 = load ptr, ptr %12, align 8, !tbaa !56
  %115 = getelementptr inbounds nuw %struct.xtc3_context, ptr %114, i32 0, i32 9
  %116 = load ptr, ptr %115, align 8, !tbaa !51
  %117 = load ptr, ptr %14, align 8, !tbaa !3
  %118 = load i32, ptr %117, align 4, !tbaa !8
  %119 = add nsw i32 %118, 2
  %120 = sext i32 %119 to i64
  %121 = getelementptr inbounds i32, ptr %116, i64 %120
  %122 = load i32, ptr %121, align 4, !tbaa !8
  %123 = call i32 @unpositive_int(i32 noundef %122)
  %124 = load ptr, ptr %16, align 8, !tbaa !3
  %125 = getelementptr inbounds i32, ptr %124, i64 2
  %126 = load i32, ptr %125, align 4, !tbaa !8
  %127 = add nsw i32 %123, %126
  %128 = getelementptr inbounds [3 x i32], ptr %23, i64 0, i64 2
  store i32 %127, ptr %128, align 4, !tbaa !8
  %129 = load ptr, ptr %14, align 8, !tbaa !3
  %130 = load i32, ptr %129, align 4, !tbaa !8
  %131 = add nsw i32 %130, 3
  store i32 %131, ptr %129, align 4, !tbaa !8
  br label %212

132:                                              ; preds = %79, %76
  %133 = load ptr, ptr %12, align 8, !tbaa !56
  %134 = getelementptr inbounds nuw %struct.xtc3_context, ptr %133, i32 0, i32 12
  %135 = load ptr, ptr %134, align 8, !tbaa !53
  %136 = icmp ne ptr %135, null
  br i1 %136, label %137, label %211

137:                                              ; preds = %132
  %138 = load ptr, ptr %12, align 8, !tbaa !56
  %139 = getelementptr inbounds nuw %struct.xtc3_context, ptr %138, i32 0, i32 12
  %140 = load ptr, ptr %139, align 8, !tbaa !53
  %141 = load ptr, ptr %15, align 8, !tbaa !3
  %142 = load i32, ptr %141, align 4, !tbaa !8
  %143 = sext i32 %142 to i64
  %144 = getelementptr inbounds i32, ptr %140, i64 %143
  %145 = load i32, ptr %144, align 4, !tbaa !8
  %146 = call i32 @unpositive_int(i32 noundef %145)
  %147 = load ptr, ptr %18, align 8, !tbaa !3
  %148 = load i32, ptr %19, align 4, !tbaa !8
  %149 = load i32, ptr %21, align 4, !tbaa !8
  %150 = mul nsw i32 %149, 3
  %151 = sub nsw i32 %148, %150
  %152 = load i32, ptr %20, align 4, !tbaa !8
  %153 = mul nsw i32 %152, 3
  %154 = add nsw i32 %151, %153
  %155 = sext i32 %154 to i64
  %156 = getelementptr inbounds i32, ptr %147, i64 %155
  %157 = load i32, ptr %156, align 4, !tbaa !8
  %158 = add nsw i32 %146, %157
  %159 = getelementptr inbounds [3 x i32], ptr %23, i64 0, i64 0
  store i32 %158, ptr %159, align 4, !tbaa !8
  %160 = load ptr, ptr %12, align 8, !tbaa !56
  %161 = getelementptr inbounds nuw %struct.xtc3_context, ptr %160, i32 0, i32 12
  %162 = load ptr, ptr %161, align 8, !tbaa !53
  %163 = load ptr, ptr %15, align 8, !tbaa !3
  %164 = load i32, ptr %163, align 4, !tbaa !8
  %165 = add nsw i32 %164, 1
  %166 = sext i32 %165 to i64
  %167 = getelementptr inbounds i32, ptr %162, i64 %166
  %168 = load i32, ptr %167, align 4, !tbaa !8
  %169 = call i32 @unpositive_int(i32 noundef %168)
  %170 = load ptr, ptr %18, align 8, !tbaa !3
  %171 = load i32, ptr %19, align 4, !tbaa !8
  %172 = load i32, ptr %21, align 4, !tbaa !8
  %173 = mul nsw i32 %172, 3
  %174 = sub nsw i32 %171, %173
  %175 = add nsw i32 %174, 1
  %176 = load i32, ptr %20, align 4, !tbaa !8
  %177 = mul nsw i32 %176, 3
  %178 = add nsw i32 %175, %177
  %179 = sext i32 %178 to i64
  %180 = getelementptr inbounds i32, ptr %170, i64 %179
  %181 = load i32, ptr %180, align 4, !tbaa !8
  %182 = add nsw i32 %169, %181
  %183 = getelementptr inbounds [3 x i32], ptr %23, i64 0, i64 1
  store i32 %182, ptr %183, align 4, !tbaa !8
  %184 = load ptr, ptr %12, align 8, !tbaa !56
  %185 = getelementptr inbounds nuw %struct.xtc3_context, ptr %184, i32 0, i32 12
  %186 = load ptr, ptr %185, align 8, !tbaa !53
  %187 = load ptr, ptr %15, align 8, !tbaa !3
  %188 = load i32, ptr %187, align 4, !tbaa !8
  %189 = add nsw i32 %188, 2
  %190 = sext i32 %189 to i64
  %191 = getelementptr inbounds i32, ptr %186, i64 %190
  %192 = load i32, ptr %191, align 4, !tbaa !8
  %193 = call i32 @unpositive_int(i32 noundef %192)
  %194 = load ptr, ptr %18, align 8, !tbaa !3
  %195 = load i32, ptr %19, align 4, !tbaa !8
  %196 = load i32, ptr %21, align 4, !tbaa !8
  %197 = mul nsw i32 %196, 3
  %198 = sub nsw i32 %195, %197
  %199 = add nsw i32 %198, 2
  %200 = load i32, ptr %20, align 4, !tbaa !8
  %201 = mul nsw i32 %200, 3
  %202 = add nsw i32 %199, %201
  %203 = sext i32 %202 to i64
  %204 = getelementptr inbounds i32, ptr %194, i64 %203
  %205 = load i32, ptr %204, align 4, !tbaa !8
  %206 = add nsw i32 %193, %205
  %207 = getelementptr inbounds [3 x i32], ptr %23, i64 0, i64 2
  store i32 %206, ptr %207, align 4, !tbaa !8
  %208 = load ptr, ptr %15, align 8, !tbaa !3
  %209 = load i32, ptr %208, align 4, !tbaa !8
  %210 = add nsw i32 %209, 3
  store i32 %210, ptr %208, align 4, !tbaa !8
  br label %211

211:                                              ; preds = %137, %132
  br label %212

212:                                              ; preds = %211, %84
  br label %213

213:                                              ; preds = %212, %31
  %214 = load ptr, ptr %16, align 8, !tbaa !3
  %215 = getelementptr inbounds [3 x i32], ptr %23, i64 0, i64 0
  call void @llvm.memcpy.p0.p0.i64(ptr align 4 %214, ptr align 4 %215, i64 12, i1 false)
  %216 = getelementptr inbounds [3 x i32], ptr %23, i64 0, i64 0
  %217 = load i32, ptr %216, align 4, !tbaa !8
  %218 = load ptr, ptr %18, align 8, !tbaa !3
  %219 = load i32, ptr %19, align 4, !tbaa !8
  %220 = sext i32 %219 to i64
  %221 = getelementptr inbounds i32, ptr %218, i64 %220
  store i32 %217, ptr %221, align 4, !tbaa !8
  %222 = getelementptr inbounds [3 x i32], ptr %23, i64 0, i64 1
  %223 = load i32, ptr %222, align 4, !tbaa !8
  %224 = load ptr, ptr %18, align 8, !tbaa !3
  %225 = load i32, ptr %19, align 4, !tbaa !8
  %226 = add nsw i32 %225, 1
  %227 = sext i32 %226 to i64
  %228 = getelementptr inbounds i32, ptr %224, i64 %227
  store i32 %223, ptr %228, align 4, !tbaa !8
  %229 = getelementptr inbounds [3 x i32], ptr %23, i64 0, i64 2
  %230 = load i32, ptr %229, align 4, !tbaa !8
  %231 = load ptr, ptr %18, align 8, !tbaa !3
  %232 = load i32, ptr %19, align 4, !tbaa !8
  %233 = add nsw i32 %232, 2
  %234 = sext i32 %233 to i64
  %235 = getelementptr inbounds i32, ptr %231, i64 %234
  store i32 %230, ptr %235, align 4, !tbaa !8
  call void @llvm.lifetime.end.p0(i64 12, ptr %23) #9
  ret void
}