; Function Attrs: mustprogress nofree norecurse nosync nounwind willreturn memory(readwrite, inaccessiblemem: none) uwtable
define internal fastcc void @unpack_one_large(ptr noundef nonnull readonly captures(none) %0, ptr noundef nonnull captures(none) %1, ptr noundef nonnull captures(none) %2, ptr noundef nonnull captures(none) %3, ptr noundef nonnull captures(none) %4, ptr noundef nonnull readonly captures(none) %5, ptr noundef captures(none) %6, i32 noundef %7, i32 noundef range(i32 0, 2) %8, i32 noundef %9, i32 noundef range(i32 0, 3) %10) unnamed_addr #8 {
  switch i32 %10, label %67 [
    i32 0, label %12
    i32 1, label %32
  ]

12:                                               ; preds = %11
  %13 = getelementptr inbounds nuw i8, ptr %0, i64 32
  %14 = load ptr, ptr %13, align 8, !tbaa !53
  %.not = icmp eq ptr %14, null
  br i1 %.not, label %67, label %15

15:                                               ; preds = %12
  %16 = load i32, ptr %1, align 4, !tbaa !3
  %17 = sext i32 %16 to i64
  %18 = getelementptr inbounds i32, ptr %14, i64 %17
  %19 = load i32, ptr %18, align 4, !tbaa !3
  %20 = load i32, ptr %5, align 4, !tbaa !3
  %21 = add nsw i32 %20, %19
  %22 = getelementptr i8, ptr %18, i64 4
  %23 = load i32, ptr %22, align 4, !tbaa !3
  %24 = getelementptr inbounds nuw i8, ptr %5, i64 4
  %25 = load i32, ptr %24, align 4, !tbaa !3
  %26 = add nsw i32 %25, %23
  %27 = getelementptr i8, ptr %18, i64 8
  %28 = load i32, ptr %27, align 4, !tbaa !3
  %29 = getelementptr inbounds nuw i8, ptr %5, i64 8
  %30 = load i32, ptr %29, align 4, !tbaa !3
  %31 = add nsw i32 %30, %28
  br label %.sink.split

32:                                               ; preds = %11
  %33 = getelementptr inbounds nuw i8, ptr %0, i64 48
  %34 = load ptr, ptr %33, align 8, !tbaa !56
  %.not54 = icmp eq ptr %34, null
  br i1 %.not54, label %67, label %35

35:                                               ; preds = %32
  %36 = load i32, ptr %2, align 4, !tbaa !3
  %37 = sext i32 %36 to i64
  %38 = getelementptr inbounds i32, ptr %34, i64 %37
  %39 = load i32, ptr %38, align 4, !tbaa !3
  %40 = add nsw i32 %39, 1
  %41 = sdiv i32 %40, 2
  %42 = and i32 %39, 1
  %43 = icmp eq i32 %42, 0
  %44 = sub nsw i32 0, %41
  %spec.select.i = select i1 %43, i32 %44, i32 %41
  %45 = load i32, ptr %4, align 4, !tbaa !3
  %46 = add nsw i32 %spec.select.i, %45
  %47 = getelementptr i8, ptr %38, i64 4
  %48 = load i32, ptr %47, align 4, !tbaa !3
  %49 = add nsw i32 %48, 1
  %50 = sdiv i32 %49, 2
  %51 = and i32 %48, 1
  %52 = icmp eq i32 %51, 0
  %53 = sub nsw i32 0, %50
  %spec.select.i56 = select i1 %52, i32 %53, i32 %50
  %54 = getelementptr inbounds nuw i8, ptr %4, i64 4
  %55 = load i32, ptr %54, align 4, !tbaa !3
  %56 = add nsw i32 %spec.select.i56, %55
  %57 = getelementptr i8, ptr %38, i64 8
  %58 = load i32, ptr %57, align 4, !tbaa !3
  %59 = add nsw i32 %58, 1
  %60 = sdiv i32 %59, 2
  %61 = and i32 %58, 1
  %62 = icmp eq i32 %61, 0
  %63 = sub nsw i32 0, %60
  %spec.select.i57 = select i1 %62, i32 %63, i32 %60
  %64 = getelementptr inbounds nuw i8, ptr %4, i64 8
  %65 = load i32, ptr %64, align 4, !tbaa !3
  %66 = add nsw i32 %spec.select.i57, %65
  br label %.sink.split

67:                                               ; preds = %12, %11, %32
  %68 = getelementptr inbounds nuw i8, ptr %0, i64 64
  %69 = load ptr, ptr %68, align 8, !tbaa !58
  %.not55 = icmp eq ptr %69, null
  br i1 %.not55, label %112, label %70

70:                                               ; preds = %67
  %71 = load i32, ptr %3, align 4, !tbaa !3
  %72 = sext i32 %71 to i64
  %73 = getelementptr inbounds i32, ptr %69, i64 %72
  %74 = load i32, ptr %73, align 4, !tbaa !3
  %75 = add nsw i32 %74, 1
  %76 = sdiv i32 %75, 2
  %77 = and i32 %74, 1
  %78 = icmp eq i32 %77, 0
  %79 = sub nsw i32 0, %76
  %spec.select.i58 = select i1 %78, i32 %79, i32 %76
  %.neg = mul i32 %9, -3
  %80 = add i32 %.neg, %7
  %81 = mul nuw nsw i32 %8, 3
  %82 = add i32 %80, %81
  %83 = sext i32 %82 to i64
  %84 = getelementptr inbounds i32, ptr %6, i64 %83
  %85 = load i32, ptr %84, align 4, !tbaa !3
  %86 = add nsw i32 %spec.select.i58, %85
  %87 = getelementptr i8, ptr %73, i64 4
  %88 = load i32, ptr %87, align 4, !tbaa !3
  %89 = add nsw i32 %88, 1
  %90 = sdiv i32 %89, 2
  %91 = and i32 %88, 1
  %92 = icmp eq i32 %91, 0
  %93 = sub nsw i32 0, %90
  %spec.select.i59 = select i1 %92, i32 %93, i32 %90
  %94 = add i32 %82, 1
  %95 = sext i32 %94 to i64
  %96 = getelementptr inbounds i32, ptr %6, i64 %95
  %97 = load i32, ptr %96, align 4, !tbaa !3
  %98 = add nsw i32 %spec.select.i59, %97
  %99 = getelementptr i8, ptr %73, i64 8
  %100 = load i32, ptr %99, align 4, !tbaa !3
  %101 = add nsw i32 %100, 1
  %102 = sdiv i32 %101, 2
  %103 = and i32 %100, 1
  %104 = icmp eq i32 %103, 0
  %105 = sub nsw i32 0, %102
  %spec.select.i60 = select i1 %104, i32 %105, i32 %102
  %106 = add i32 %82, 2
  %107 = sext i32 %106 to i64
  %108 = getelementptr inbounds i32, ptr %6, i64 %107
  %109 = load i32, ptr %108, align 4, !tbaa !3
  %110 = add nsw i32 %spec.select.i60, %109
  br label %.sink.split

.sink.split:                                      ; preds = %15, %70, %35
  %.sink62 = phi i32 [ %36, %35 ], [ %71, %70 ], [ %16, %15 ]
  %.sink61 = phi ptr [ %2, %35 ], [ %3, %70 ], [ %1, %15 ]
  %.sroa.0.0.ph = phi i32 [ %46, %35 ], [ %86, %70 ], [ %21, %15 ]
  %.sroa.8.0.ph = phi i32 [ %56, %35 ], [ %98, %70 ], [ %26, %15 ]
  %.sroa.12.0.ph = phi i32 [ %66, %35 ], [ %110, %70 ], [ %31, %15 ]
  %111 = add nsw i32 %.sink62, 3
  store i32 %111, ptr %.sink61, align 4, !tbaa !3
  br label %112

112:                                              ; preds = %.sink.split, %67
  %.sroa.0.0 = phi i32 [ 0, %67 ], [ %.sroa.0.0.ph, %.sink.split ]
  %.sroa.8.0 = phi i32 [ 0, %67 ], [ %.sroa.8.0.ph, %.sink.split ]
  %.sroa.12.0 = phi i32 [ 0, %67 ], [ %.sroa.12.0.ph, %.sink.split ]
  store i32 %.sroa.0.0, ptr %4, align 4
  %.sroa.8.0..sroa_idx = getelementptr inbounds nuw i8, ptr %4, i64 4
  store i32 %.sroa.8.0, ptr %.sroa.8.0..sroa_idx, align 4
  %.sroa.12.0..sroa_idx = getelementptr inbounds nuw i8, ptr %4, i64 8
  store i32 %.sroa.12.0, ptr %.sroa.12.0..sroa_idx, align 4
  %113 = sext i32 %7 to i64
  %114 = getelementptr inbounds i32, ptr %6, i64 %113
  store i32 %.sroa.0.0, ptr %114, align 4, !tbaa !3
  %115 = getelementptr i8, ptr %114, i64 4
  store i32 %.sroa.8.0, ptr %115, align 4, !tbaa !3
  %116 = getelementptr i8, ptr %114, i64 8
  store i32 %.sroa.12.0, ptr %116, align 4, !tbaa !3
  ret void
}